(dp0
S'hosts'
p1
(dp2
S'common-lisp.net'
p3
I1
sS'nileshgr.com'
p4
I1
sS'facts.learnpython.org'
p5
I1
sS'stripe.com'
p6
I1
sS'blog.tappingstone.com'
p7
I1
sS'www.servercobra.com'
p8
I1
sS'www.socketubs.net'
p9
I1
sS'www.raywenderlich.com'
p10
I1
sS'www.pdnotebook.com'
p11
I1
sS'fjavieralba.com'
p12
I1
sS'challenge.ncss.edu.au'
p13
I1
sS'www.nltk.org'
p14
I1
sS'www.unessa.net'
p15
I1
sS'www.vcasmo.com'
p16
I1
sS'petersobot.com'
p17
I1
sS'clarete.github.com'
p18
I1
sS'googleappengine.blogspot.in'
p19
I1
sS'pycx.sourceforge.net'
p20
I1
sS'aws.typepad.com'
p21
I1
sS'publish.luisrei.com'
p22
I1
sS'alex.nisnevich.com'
p23
I1
sS'blog.notmyidea.org'
p24
I1
sS'pyjs.org'
p25
I1
sS'fwierzbicki.blogspot.com'
p26
I2
sS'www.codeproject.com'
p27
I3
sS'docs.djangoproject.com'
p28
I4
sS'refer.ly'
p29
I1
sS'nahimnasser.github.com'
p30
I1
sS'blog.abhiomkar.in'
p31
I1
sS'movu.ca'
p32
I3
sS're-try.appspot.com'
p33
I1
sS'epmoyer.github.com'
p34
I1
sS'people.csail.mit.edu'
p35
I1
sS'www.vurt.ru'
p36
I1
sS'teddziuba.com'
p37
I1
sS'blog.jmoz.co.uk'
p38
I2
sS'opensourcehacker.com'
p39
I7
sS'blog.delroth.net'
p40
I1
sS'vpython.org'
p41
I1
sS'gmvault.org'
p42
I1
sS'dl.fullcirclemagazine.org'
p43
I1
sS'www.pythondiary.com'
p44
I1
sS'derek.simkowiak.net.nyud.net'
p45
I1
sS'appsembler.com'
p46
I1
sS'pystar-mpls-4-esearch.eventbrite.com'
p47
I1
sS'haridas.in'
p48
I1
sS'patsy.readthedocs.org'
p49
I1
sS'blog.lost-theory.org'
p50
I1
sS'nerdparadise.com'
p51
I1
sS'docs.celeryproject.org'
p52
I1
sS'ocw.mit.edu'
p53
I1
sS'bottlepy.org'
p54
I2
sS'pygame.renpy.org'
p55
I1
sS'raspberry.io'
p56
I1
sS'pytools.codeplex.com'
p57
I6
sS'jordanscales.com'
p58
I1
sS'policystat.github.com'
p59
I1
sS'chipy.org'
p60
I1
sS'alphapixel.com'
p61
I1
sS'beauty-of-imagination.blogspot.com'
p62
I1
sS'toastdriven.com'
p63
I1
sS'groups.google.com'
p64
I6
sS'python-notes.boredomandlaziness.org'
p65
I1
sS'david-hu.com'
p66
I1
sS'eldarion.com'
p67
I1
sS'clerestories.com'
p68
I1
sS'amon.cx'
p69
I1
sS'gettingstartedwithdjango.com'
p70
I3
sS'www.julython.org'
p71
I1
sS'www.fomori.org'
p72
I1
sS'blog.afkham.org'
p73
I2
sS'wrongsideofmemphis.com'
p74
I1
sS'blog.explainmydata.com'
p75
I1
sS'aymanh.com'
p76
I1
sS'nc-django-sprint-2011-11.eventbrite.com'
p77
I1
sS'circus.readthedocs.org'
p78
I1
sS'pythonnortheast-es2.eventbrite.co.uk'
p79
I1
sS'www.pfinn.net'
p80
I1
sS'www.mightydeals.com'
p81
I10
sS'www.dropbox.com'
p82
I1
sS'www.kpkaiser.com'
p83
I1
sS'ganwellresource.blogspot.com'
p84
I2
sS'blog.amir.rachum.com'
p85
I2
sS'quepy.readthedocs.org'
p86
I1
sS'julien-marchand.fr'
p87
I1
sS'justcramer.com'
p88
I1
sS'djangotricks.blogspot.com'
p89
I1
sS'nicolargo.github.com'
p90
I1
sS'ncoghlan_devs-python-notes.readthedocs.org'
p91
I1
sS'blueprintforge.com'
p92
I3
sS'txzone.net'
p93
I1
sS'bobbelderbos.com'
p94
I1
sS'xpresser.com'
p95
I1
sS'coderweekly.com'
p96
I2
sS'alexmarandon.com'
p97
I1
sS'signal0.com'
p98
I1
sS'blog.brendel.com'
p99
I1
sS'inventwithpython.com'
p100
I10
sS'blog.ccpgames.com'
p101
I1
sS'aimotion.blogspot.com.br'
p102
I1
sS'cloud.google.com'
p103
I14
sS'www.johnvinyard.com'
p104
I1
sS'www.developerdrive.com'
p105
I3
sS'maxburstein.com'
p106
I4
sS'www.ianlewis.org'
p107
I1
sS'kkjkok.blogspot.com'
p108
I1
sS'blog.codecentric.de'
p109
I1
sS'bionicspirit.com'
p110
I1
sS'christiankaula.com'
p111
I1
sS'python-for-humans.heroku.com'
p112
I1
sS'mmstats.readthedocs.org'
p113
I1
sS'instagram-engineering.tumblr.com'
p114
I1
sS'ghughes.com'
p115
I1
sS'www.theregister.co.uk'
p116
I1
sS'meldmerge.org'
p117
I1
sS'pyramid-blogr.readthedocs.org'
p118
I1
sS'blog.python.org'
p119
I3
sS'pythonorg-redesign.readthedocs.org'
p120
I1
sS'intermediate-workshop-borderstylo.eventbrite.com'
p121
I1
sS'andy.terrel.us'
p122
I1
sS'charlesleifer.com'
p123
I10
sS'docs.pylonsproject.org'
p124
I6
sS'googlegeodevelopers.blogspot.com'
p125
I1
sS'podolyaka.org'
p126
I1
sS'launchpad.net'
p127
I3
sS'renpy.org'
p128
I1
sS'fulmicoton.com'
p129
I2
sS'vimeo.com'
p130
I17
sS'pythonconquerstheuniverse.wordpress.com'
p131
I1
sS'wiki.cython.org'
p132
I1
sS'www.thisweekindomains.com'
p133
I2
sS'opendjangoeast2012.eventbrite.com'
p134
I1
sS'pycheckup.herokuapp.com'
p135
I1
sS'blog.pythonisito.com'
p136
I12
sS'opensourcebroadcasting.blogspot.com'
p137
I1
sS'stefan.sofa-rockers.org'
p138
I3
sS'www.jeffknupp.com'
p139
I8
sS'dbrownbeta.blogs.cultureplex.ca'
p140
I1
sS'pygrunn-paylogic.blogspot.com'
p141
I1
sS'www.craig-wood.com'
p142
I1
sS'gun.io'
p143
I2
sS'www.djangonauts.org'
p144
I1
sS'blog.doismellburning.co.uk'
p145
I1
sS'douglatornell.ca'
p146
I1
sS'pinaxproject.com'
p147
I1
sS'erlport.org'
p148
I1
sS'www.aminus.net'
p149
I1
sS'mjp.github.com'
p150
I1
sS'pyweek.org'
p151
I3
sS'ampushmedia.jobscore.com'
p152
I1
sS'paddy3118.blogspot.com'
p153
I1
sS'pytest.org'
p154
I1
sS'ralsina.com.ar'
p155
I1
sS'launchbit.com'
p156
I21
sS'raxcloud.blogspot.com'
p157
I1
sS'pythonprojectwatch.blogspot.com'
p158
I1
sS'wesmckinney.com'
p159
I2
sS'niemeyer.net'
p160
I1
sS'chrislesage.com'
p161
I1
sS'www.djangonyc.org'
p162
I11
sS'www.udacity.com'
p163
I2
sS'saltstack.org'
p164
I1
sS'blog.barvinograd.com'
p165
I1
sS'tomforb.es'
p166
I2
sS'danielnouri.org'
p167
I1
sS'blog.notdot.net'
p168
I3
sS'juanreyero.com'
p169
I1
sS'macwright.org'
p170
I1
sS'libsaas.net'
p171
I1
sS'evanbrynne.com'
p172
I1
sS'mg.pov.lt'
p173
I1
sS'blog.bottlepy.org'
p174
I1
sS'pydev.blogspot.com'
p175
I1
sS'www.s7labs.com'
p176
I1
sS'jarvis.readthedocs.org'
p177
I1
sS'www.saurdo.com'
p178
I1
sS'geekli.st'
p179
I1
sS'mindref.blogspot.com'
p180
I1
sS'orange.biolab.si'
p181
I1
sS'plus.google.com'
p182
I4
sS'blog.abahgat.com'
p183
I1
sS'www.essentialcode.com'
p184
I1
sS'timbroder.com'
p185
I1
sS'dgtool.blogspot.com'
p186
I1
sS'www.photo-mark.com'
p187
I1
sS'philfreo.com'
p188
I1
sS'mit.edu'
p189
I2
sS'www.angryobjects.com'
p190
I1
sS'www.eventbrite.com'
p191
I3
sS'funkload.nuxeo.org'
p192
I1
sS'blog.ablepear.com'
p193
I1
sS'programarcadegames.com'
p194
I1
sS'williamedwardscoder.tumblr.com'
p195
I1
sS'leone.panopticdev.com'
p196
I1
sS'twiecki.github.com'
p197
I1
sS'codecr.am'
p198
I1
sS'www.benjamincoe.com'
p199
I1
sS'www.kegel.com'
p200
I1
sS'tech.dropbox.com'
p201
I3
sS'google-styleguide.googlecode.com'
p202
I1
sS'mtomassoli.wordpress.com'
p203
I1
sS'radiofreepython.com'
p204
I8
sS'pypi.python.org'
p205
I2
sS'bruno.im'
p206
I1
sS'ravi-gadhia.github.com'
p207
I1
sS'www.jjguy.com'
p208
I1
sS'human.io'
p209
I1
sS'blog.yhathq.com'
p210
I3
sS'djangodash.com'
p211
I1
sS'techblog.ironfroggy.com'
p212
I1
sS'ipython.org'
p213
I2
sS'techspot.zzzeek.org'
p214
I3
sS'archlinux.me'
p215
I2
sS'lightbird.net'
p216
I1
sS'web.psung.name'
p217
I1
sS'www.phi-node.com'
p218
I1
sS'datahackermd.com'
p219
I1
sS'coreygoldberg.blogspot.com'
p220
I2
sS'hyde.github.com'
p221
I1
sS'www.shinken-monitoring.org'
p222
I1
sS'anthonynystrom.github.com'
p223
I1
sS'bengrosser.com'
p224
I1
sS'hacks.mozilla.org'
p225
I1
sS'pyvideo.org'
p226
I2
sS'codeinthehole.com'
p227
I2
sS'glowingpython.blogspot.com'
p228
I4
sS'pythoninfinancenyc2013.eventbrite.com'
p229
I1
sS'cn.pycon.org'
p230
I1
sS'asyncoro.sourceforge.net'
p231
I1
sS'www.frompythonimportpodcast.com'
p232
I1
sS'www.nosqlweekly.com'
p233
I1
sS'airy.letolab.com'
p234
I1
sS'media.revsys.com'
p235
I1
sS'www.devttys0.com'
p236
I1
sS'us.pycon.org'
p237
I7
sS'www.dabeaz.com'
p238
I2
sS'elazungu.wordpress.com'
p239
I2
sS'pycounters.readthedocs.org'
p240
I1
sS'www.r-bloggers.com'
p241
I1
sS'thruflo.com'
p242
I1
sS'blog.cloudera.com'
p243
I1
sS'splinter.cobrateam.info'
p244
I1
sS'scipy-lectures.github.com'
p245
I2
sS'andrewwilkinson.wordpress.com'
p246
I1
sS'blog.iqyax.org'
p247
I1
sS'arxiv.org'
p248
I3
sS'python.org'
p249
I1
sS'ratchet.io'
p250
I1
sS'adrian.org.ar'
p251
I2
sS'lincolnloop.com'
p252
I5
sS'www.caktusgroup.com'
p253
I7
sS'lucumr.pocoo.org'
p254
I7
sS'f.souza.cc'
p255
I1
sS'training.esri.com'
p256
I1
sS'bitbucket.org'
p257
I27
sS'tetamap.wordpress.com'
p258
I1
sS'www.allbuttonspressed.com'
p259
I1
sS'raidersec.blogspot.com'
p260
I2
sS'hforsten.com'
p261
I1
sS'khinsen.wordpress.com'
p262
I1
sS'python-gtk-3-tutorial.readthedocs.org'
p263
I1
sS'www.freddyt.eu'
p264
I1
sS'gistflow.com'
p265
I1
sS'www.jcopro.net'
p266
I4
sS'pystarphillyworkshop2.eventbrite.com'
p267
I1
sS'ferris-framework.appspot.com'
p268
I1
sS'irmen.home.xs4all.nl'
p269
I1
sS'docs.python.org'
p270
I3
sS'techblog.rosedu.org'
p271
I1
sS'www.ibm.com'
p272
I13
sS'hortonworks.com'
p273
I1
sS'amix.dk'
p274
I1
sS'slowfrog.blogspot.in'
p275
I1
sS'www.stereoplex.com'
p276
I1
sS'enthought.com'
p277
I6
sS'www.quinico.com'
p278
I1
sS'urlobject.readthedocs.org'
p279
I1
sS'openblockproject.org'
p280
I1
sS'hg.theorchromo.ru'
p281
I1
sS'code.google.com'
p282
I20
sS'thebuild.com'
p283
I1
sS'thecodebase.com'
p284
I1
sS'slendrmeans.wordpress.com'
p285
I1
sS'denis.papathanasiou.org'
p286
I1
sS'engineerwithoutacause.com'
p287
I1
sS'itunes.apple.com'
p288
I1
sS'simpy.sourceforge.net'
p289
I1
sS'importthis.tumblr.com'
p290
I1
sS'excess.org'
p291
I3
sS'www.sans.org'
p292
I1
sS'scrapy.org'
p293
I1
sS'www.dsprelated.com'
p294
I2
sS'chartit.shutupandship.com'
p295
I1
sS'www.tdd-django-tutorial.com'
p296
I1
sS'kunigami.wordpress.com'
p297
I1
sS'kennethreitz.com'
p298
I2
sS'arstechnica.com'
p299
I1
sS'plexusproject.org'
p300
I1
sS'www.pymvpa.org'
p301
I1
sS'video.esri.com'
p302
I1
sS'www.macstories.net'
p303
I2
sS'djangosuit.com'
p304
I1
sS'maximebf.com'
p305
I1
sS'me.veekun.com'
p306
I3
sS'www.djangoproject.com'
p307
I14
sS'blog.dscpl.com.au'
p308
I2
sS'codysoyland.com'
p309
I1
sS'brack3t.com'
p310
I3
sS'www.gregreda.com'
p311
I1
sS'gist.github.com'
p312
I6
sS'learnpython.wordpress.com'
p313
I1
sS'www.apreche.net'
p314
I1
sS'sdiehl.github.com'
p315
I1
sS'mumpy.org'
p316
I2
sS'kencochrane.net'
p317
I4
sS'ptspts.blogspot.com'
p318
I1
sS'www.artima.com'
p319
I1
sS'dougalmatthews.com'
p320
I1
sS'pandas.sourceforge.net'
p321
I1
sS'www.jmcneil.net'
p322
I1
sS'ua.pycon.org'
p323
I2
sS'pydata.eventbrite.com'
p324
I1
sS'blog.startifact.com'
p325
I1
sS'www.southampton.ac.uk'
p326
I3
sS'kartograph.org'
p327
I1
sS'ude.my'
p328
I5
sS'mrjoes.github.com'
p329
I1
sS'brocabrain.blogspot.in'
p330
I1
sS'www.meetup.com'
p331
I134
sS'www.djangocmsthemes.com'
p332
I1
sS'agiliq.com'
p333
I8
sS'blogs.fluidinfo.com'
p334
I1
sS'pypy.org'
p335
I1
sS'labs.lusob.com'
p336
I1
sS'blogs.esri.com'
p337
I1
sS'jakevdp.github.com'
p338
I11
sS'outofmemoryblog.blogspot.fr'
p339
I1
sS'radar.oreilly.com'
p340
I1
sS'manns.github.com'
p341
I1
sS'docs.google.com'
p342
I3
sS'mattupstate.github.com'
p343
I2
sS'pyladies-nov-workshop-usc.eventbrite.com'
p344
I1
sS'tomerfiliba.com'
p345
I1
sS'ydevel.tumblr.com'
p346
I1
sS'sessioncast.techweek.com'
p347
I1
sS'technicdynamic.com'
p348
I1
sS'afreak.ca'
p349
I1
sS'blog.kaggle.com'
p350
I1
sS'pycogent.sourceforge.net'
p351
I1
sS'ph.pycon.org'
p352
I1
sS'continuum.io'
p353
I4
sS'tech.matchfwd.com'
p354
I1
sS'channel9.msdn.com'
p355
I1
sS'aimotion.blogspot.ca'
p356
I1
sS'www.mutualmobile.com'
p357
I8
sS'null-byte.wonderhowto.com'
p358
I2
sS'tghw.com'
p359
I1
sS'cyrille.rossant.net'
p360
I1
sS'www.cbanalytics.co.uk'
p361
I1
sS'coder.cl'
p362
I1
sS'preshing.com'
p363
I1
sS'www.codecademy.com'
p364
I2
sS'hannahfry.co.uk'
p365
I1
sS'curella.org'
p366
I1
sS'www.michaelnielsen.org'
p367
I1
sS'www.levigross.com'
p368
I1
sS'devstackup-python-es2.eventbrite.com'
p369
I1
sS'bpython-interpreter.org'
p370
I1
sS'atl.me'
p371
I1
sS'kennethreitz.org'
p372
I1
sS'scikit-learn.org'
p373
I2
sS'www.jdoqocy.com'
p374
I1
sS'sabonrai.com'
p375
I1
sS'www.wefearchange.org'
p376
I3
sS'kivy.org'
p377
I1
sS'strata.oreilly.com'
p378
I1
sS'quick2wire.com'
p379
I1
sS'www.nicosphere.net'
p380
I1
sS'aimotion.blogspot.co.uk'
p381
I1
sS'labs.codernity.com'
p382
I1
sS'www.rkblog.rk.edu.pl'
p383
I2
sS'testutils.org'
p384
I1
sS'minpowertoolkit.com'
p385
I1
sS'plope.com'
p386
I1
sS'blog.lumino.so'
p387
I1
sS'blip.tv'
p388
I6
sS'www.kickstarter.com'
p389
I4
sS'graphite.wikidot.com'
p390
I1
sS'www1.gotomeeting.com'
p391
I1
sS'www.php2python.com'
p392
I1
sS'pythonect.org'
p393
I1
sS'hyperpolyglot.org'
p394
I1
sS'beauty-of-imagination.blogspot.fr'
p395
I2
sS'andybromberg.com'
p396
I1
sS'www.cgmasters.net'
p397
I1
sS'blog.jetbrains.com'
p398
I2
sS'apipes.blogspot.com'
p399
I1
sS'pydanny.com'
p400
I8
sS'www.mcs.anl.gov'
p401
I1
sS'www.founderweekly.com'
p402
I2
sS'fedorahosted.org'
p403
I1
sS'peekaboo-vision.blogspot.com'
p404
I1
sS'www.clips.ua.ac.be'
p405
I1
sS'pyeda.readthedocs.org'
p406
I1
sS'fmota.eu'
p407
I1
sS'www.reddit.com'
p408
I4
sS'jdcny-esearch.eventbrite.com'
p409
I1
sS'www.fosslc.org'
p410
I1
sS'blog.kangasbros.fi'
p411
I1
sS'blog.pythonanywhere.com'
p412
I1
sS'pyrseas.wordpress.com'
p413
I2
sS'www.linuxforu.com'
p414
I2
sS'emptysquare.net'
p415
I10
sS'brainacle.com'
p416
I2
sS'manishamde.github.com'
p417
I1
sS'www.wunki.org'
p418
I1
sS'zulko.wordpress.com'
p419
I1
sS'www.johndcook.com'
p420
I1
sS'djangocon.us'
p421
I1
sS'www.gregaker.net'
p422
I1
sS'buzzientdev.posterous.com'
p423
I2
sS'cuppster.com'
p424
I1
sS'blog.enthought.com'
p425
I1
sS'blog.monitis.com'
p426
I2
sS'apppyjs.appspot.com'
p427
I1
sS'www.seapig.org'
p428
I1
sS'peekaboo-vision.blogspot.de'
p429
I1
sS'ceronman.com'
p430
I1
sS'pyzia.com'
p431
I1
sS'openshift.redhat.com'
p432
I1
sS'rubysource.com'
p433
I1
sS'danfm.ca'
p434
I1
sS'research.microsoft.com'
p435
I1
sS'williewong.wordpress.com'
p436
I1
sS'montrealpython.org'
p437
I1
sS'www.pypedia.com'
p438
I1
sS'vis4.net'
p439
I1
sS'therealkatie.net'
p440
I1
sS'baboon-project.org'
p441
I1
sS'musicmachinery.com'
p442
I1
sS'ep2012.europython.eu'
p443
I1
sS'www.nomadjourney.com'
p444
I1
sS'jebruner.com'
p445
I1
sS'matplotlib.org'
p446
I1
sS'lusob.com'
p447
I1
sS'pythonmentors.com'
p448
I1
sS'www.ocularsoftware.com'
p449
I1
sS'gbin.github.com'
p450
I1
sS'lucasvo.com'
p451
I1
sS'idea.popcount.org'
p452
I1
sS'od-eon.com'
p453
I1
sS'developer.ubuntu.com'
p454
I1
sS'dvlabs.tippingpoint.com'
p455
I2
sS'www.robgolding.com'
p456
I2
sS'2012.pythonbrasil.org.br'
p457
I1
sS'developers.google.com'
p458
I1
sS'morepypy.blogspot.de'
p459
I2
sS'pytbull.sourceforge.net'
p460
I1
sS'www.laurentluce.com'
p461
I2
sS'www.matusiak.eu'
p462
I1
sS'www.math.uic.edu'
p463
I1
sS'pyml.sourceforge.net'
p464
I1
sS'sontek.net'
p465
I2
sS'mlpy.sourceforge.net'
p466
I1
sS'drdobbs.com'
p467
I1
sS'www.buildout.org'
p468
I1
sS'www.pcpro.co.uk'
p469
I1
sS'www.alexmbell.com'
p470
I1
sS'mirnazim.org'
p471
I1
sS'magazine.redhat.com'
p472
I1
sS'erezsh.wordpress.com'
p473
I1
sS'networkx.lanl.gov'
p474
I1
sS'mail.python.org'
p475
I3
sS'spika.net'
p476
I1
sS'seanmonstar.com'
p477
I1
sS'blog.schettino72.net'
p478
I1
sS'brubeck.io'
p479
I1
sS'www.jwandrews.co.uk'
p480
I1
sS'www.securitylearn.net'
p481
I1
sS'www.seo.com'
p482
I1
sS'bulbflow.com'
p483
I1
sS'codeboom.wordpress.com'
p484
I1
sS'www.patin.ep.io'
p485
I1
sS'blog.mailgun.net'
p486
I2
sS'blog.mozilla.com'
p487
I2
sS'localwiki.org'
p488
I1
sS'statsmodels.sourceforge.net'
p489
I1
sS'www.informit.com'
p490
I1
sS'www.brython.info'
p491
I1
sS'pythonturtle.org'
p492
I1
sS'blog.metricfire.com'
p493
I1
sS'googleappengine.blogspot.com'
p494
I8
sS'wingware.blogspot.com'
p495
I2
sS'blog.khmelyuk.com'
p496
I1
sS'thelivingpearl.com'
p497
I4
sS'codebits.eu'
p498
I1
sS'nedbatchelder.com'
p499
I6
sS'speakerdeck.com'
p500
I11
sS'dbmxorg-python-sqlite-esearch.eventbrite.com'
p501
I1
sS'stevelosh.com'
p502
I1
sS'ironpython.codeplex.com'
p503
I3
sS'guidebook.com'
p504
I1
sS'conoroneill.net'
p505
I2
sS'blog.miguelgrinberg.com'
p506
I1
sS'www.brianholdefehr.com'
p507
I1
sS'mapleoin.eu'
p508
I1
sS'zedcode.blogspot.com'
p509
I1
sS'pynash.org'
p510
I1
sS'rogueleaderr.tumblr.com'
p511
I1
sS'harkablog.com'
p512
I1
sS'openreplica.org'
p513
I1
sS'craigkerstiens.com'
p514
I2
sS'fuzz-box.blogspot.com'
p515
I2
sS'word.bitly.com'
p516
I1
sS'www.amazon.com'
p517
I66
sS'www.usrsb.in'
p518
I1
sS'julienphalip.com'
p519
I1
sS'pythontesting.net'
p520
I3
sS'blog.picloud.com'
p521
I3
sS'glowingpython.blogspot.it'
p522
I5
sS'pulsh.com'
p523
I1
sS'pythonsweetness.tumblr.com'
p524
I1
sS'techatnyuworkshop-day2-esearch.eventbrite.com'
p525
I1
sS'nongraphical.com'
p526
I1
sS'aboutsimon.com'
p527
I1
sS'blog.ikotler.org'
p528
I1
sS'jeanphix.me'
p529
I1
sS'www.systemical.com'
p530
I1
sS'pauldotcom.com'
p531
I1
sS'www.vlent.nl'
p532
I1
sS'blog.endpoint.com'
p533
I1
sS'sfdjangosprint5.eventbrite.com'
p534
I1
sS'nomadblue.com'
p535
I1
sS'etchingpathways.blogspot.in'
p536
I1
sS'united-coders.com'
p537
I2
sS'www.cio.com'
p538
I1
sS'procrastinatingdev.com'
p539
I2
sS'www.sunpy.org'
p540
I1
sS'kmike.ru'
p541
I3
sS'jarv.org'
p542
I4
sS'blog.databrewery.org'
p543
I2
sS'www.mathics.org'
p544
I1
sS'www.x.com'
p545
I1
sS'discoproject.org'
p546
I1
sS'rhodesmill.org'
p547
I1
sS'boto.cloudhackers.com'
p548
I1
sS'paltman.com'
p549
I2
sS'blog.dbinit.com'
p550
I1
sS'www.randalolson.com'
p551
I2
sS'nikola.ralsina.com.ar'
p552
I1
sS'readthedocs.org'
p553
I2
sS'wordconfusion.com'
p554
I1
sS'blog.carduner.net'
p555
I1
sS'wingware.com'
p556
I3
sS'www.web2pyslices.com'
p557
I2
sS'www.codesuck.com'
p558
I1
sS'jaimegildesagredo.github.com'
p559
I1
sS'googlewebmastercentral.blogspot.com'
p560
I1
sS'jlengrand.github.com'
p561
I1
sS'hbfs.wordpress.com'
p562
I1
sS'www.webmastertalkforums.com'
p563
I1
sS'oreillynet.com'
p564
I5
sS'ianozsvald.com'
p565
I1
sS'net.tutsplus.com'
p566
I8
sS'web.mit.edu'
p567
I1
sS'casbon.me'
p568
I2
sS'pep8online.com'
p569
I1
sS'blog.mozilla.org'
p570
I1
sS'rdegges.com'
p571
I2
sS'daltonmatos.wordpress.com'
p572
I1
sS'thesprawl.org'
p573
I1
sS'www.peps.io'
p574
I1
sS'eli.thegreenplace.net'
p575
I14
sS'pyconuk.org'
p576
I1
sS'www.docslide.com'
p577
I1
sS'dylanv.org'
p578
I1
sS'www.dc949.org'
p579
I1
sS'www.python-course.eu'
p580
I1
sS'mysqlmusings.blogspot.com'
p581
I1
sS'vudang.com'
p582
I1
sS'www.michael-noll.com'
p583
I1
sS'tech.oyster.com'
p584
I3
sS'www.rcloud.me'
p585
I1
sS'ploneconf.org'
p586
I1
sS'pycon.dk'
p587
I1
sS'mdboom.github.com'
p588
I1
sS'pybrain.org'
p589
I1
sS'srayjackson.com'
p590
I1
sS'www.pythontutor.com'
p591
I1
sS'091labs.com'
p592
I1
sS'www.securitytube.net'
p593
I1
sS'pycon.disqus.com'
p594
I1
sS'www.synstorm.co.uk'
p595
I1
sS'www.letsunlockiphone.com'
p596
I1
sS'education.10gen.com'
p597
I1
sS'pyfound.blogspot.com'
p598
I6
sS'www.insomnihack.com'
p599
I1
sS'www.10gen.com'
p600
I3
sS'earl-of-code.com'
p601
I1
sS'arunrocks.com'
p602
I1
sS'twit.tv'
p603
I2
sS'www.wallix.org'
p604
I4
sS'bitworking.org'
p605
I1
sS'pyfound.blogspot.co.uk'
p606
I1
sS'www.pyzo.org'
p607
I1
sS'dabapps.com'
p608
I1
sS'blog.kramerapps.com'
p609
I1
sS'johncarlosbaez.wordpress.com'
p610
I1
sS'raphaelcruzeiro.com'
p611
I1
sS'news.ycombinator.com'
p612
I1
sS'scott.j38.net'
p613
I1
sS'active.tutsplus.com'
p614
I1
sS'www.windows-azure.net'
p615
I1
sS'www.facebook.com'
p616
I1
sS'sociograph.blogspot.com'
p617
I1
sS'www.ironspread.com'
p618
I1
sS'artymiak.com'
p619
I2
sS'docs.mongodb.org'
p620
I1
sS'victorlin.me'
p621
I1
sS'code.activestate.com'
p622
I3
sS'www.leancrew.com'
p623
I2
sS'www.activestate.com'
p624
I2
sS'blog.selfassembled.org'
p625
I1
sS'www.chasestevens.com'
p626
I1
sS'dl.dropbox.com'
p627
I3
sS'blog.vrplumber.com'
p628
I1
sS'datadesk.latimes.com'
p629
I3
sS'satyajit.ranjeev.in'
p630
I1
sS'www.fpgarelated.com'
p631
I2
sS'www.raspberrypi-spy.co.uk'
p632
I1
sS'www.sivachandran.in'
p633
I1
sS'greendalecs.wordpress.com'
p634
I1
sS'www.black-aura.com'
p635
I1
sS'wiki.python.org'
p636
I1
sS'kyivpy.org.ua'
p637
I1
sS'gotofritz.net'
p638
I1
sS'dietbuddha.blogspot.com'
p639
I1
sS'garlicsim.org'
p640
I1
sS'blog.shiningpanda.com'
p641
I1
sS'www.wellfireinteractive.com'
p642
I1
sS'www.zolmeister.com'
p643
I1
sS'sseemayer.github.com'
p644
I1
sS'fseoane.net'
p645
I3
sS'voorloopnul.com'
p646
I1
sS'senexcanis.com'
p647
I1
sS'3rdaverad.io'
p648
I4
sS'www.instructables.com'
p649
I1
sS'www.thumbtack.com'
p650
I1
sS'bit.ly'
p651
I4
sS'tin.nu'
p652
I1
sS'hackerxdeveloperpython.eventbrite.com'
p653
I1
sS'restreaming.wordpress.com'
p654
I1
sS'h6o6.com'
p655
I1
sS'www.tornadoweb.org'
p656
I5
sS'robots.thoughtbot.com'
p657
I1
sS'rz.scale-it.pl'
p658
I2
sS'www.binarytides.com'
p659
I2
sS'jordanz.me'
p660
I1
sS'steve.swindley.co.uk'
p661
I1
sS'tarekziade.wordpress.com'
p662
I1
sS'holgerkrekel.net'
p663
I1
sS'justinlilly.com'
p664
I1
sS'www.huyng.com'
p665
I1
sS'lukeplant.me.uk'
p666
I3
sS'proppy-appstats.appspot.com'
p667
I1
sS'deepakbala.me'
p668
I1
sS'zetcode.com'
p669
I1
sS'echorand.me'
p670
I2
sS'www.pylatte.org'
p671
I1
sS'travisgoodspeed.blogspot.com'
p672
I1
sS'rigoneri.com'
p673
I1
sS'www.poolyx.net'
p674
I1
sS'unix-heaven.org'
p675
I1
sS'lamsonproject.org'
p676
I1
sS'scipy.in'
p677
I1
sS'blaag.haard.se'
p678
I1
sS'www.cucumbertown.com'
p679
I1
sS'www.jetbrains.com'
p680
I7
sS'www.paulscott.za.net'
p681
I1
sS'marakana.com'
p682
I2
sS'terse-words.blogspot.com'
p683
I1
sS'www.coursera.org'
p684
I3
sS'engineering.bittorrent.com'
p685
I1
sS'techblog.vsza.hu'
p686
I1
sS'www.puffinwarellc.com'
p687
I1
sS'www.pyptug.org'
p688
I1
sS'www.norvig.com'
p689
I1
sS'plancast.com'
p690
I2
sS'www.sourcefabric.org'
p691
I1
sS'plumbum.readthedocs.org'
p692
I1
sS'www.infoq.com'
p693
I2
sS'djangrrl.com'
p694
I1
sS'pythonnortheast.eventbrite.co.uk'
p695
I1
sS'pygal.org'
p696
I1
sS'alouis93.github.com'
p697
I1
sS'bits.btubbs.com'
p698
I1
sS'satchless.com'
p699
I1
sS'lostinjit.blogspot.com'
p700
I1
sS'web2py.com'
p701
I4
sS'nvie.com'
p702
I2
sS'www.bryceboe.com'
p703
I1
sS'nasko7.blogspot.com'
p704
I1
sS'mezzanine.jupo.org'
p705
I1
sS'slott-softwarearchitect.blogspot.com'
p706
I2
sS'skillsmatter.com'
p707
I6
sS'spatialgalaxy.net'
p708
I1
sS'technicaldiscovery.blogspot.com.br'
p709
I1
sS'lukasa.co.uk'
p710
I1
sS'benplesser.com'
p711
I1
sS'tmetsch.github.com'
p712
I1
sS'mechanicalgirl.com'
p713
I2
sS'mwongstyle.com'
p714
I2
sS'ionelmc.wordpress.com'
p715
I2
sS'python.ie'
p716
I1
sS'ieee-gae-es2.eventbrite.com'
p717
I1
sS'gureckislab.org'
p718
I1
sS'github.com'
p719
I420
sS'www.webbot.ws'
p720
I1
sS'pydata.org'
p721
I1
sS'www.rfk.id.au'
p722
I2
sS'www.doughellmann.com'
p723
I1
sS'gondor.io'
p724
I1
sS'pythonhosted.org'
p725
I2
sS'blog.erezsh.com'
p726
I1
sS'www.tracelytics.com'
p727
I6
sS'www.boredomandlaziness.org'
p728
I2
sS'whit537.org'
p729
I1
sS'killer-web-development.com'
p730
I1
sS'www.rafekettler.com'
p731
I1
sS'blog.springsource.org'
p732
I1
sS'0chris.com'
p733
I1
sS'www.chipy.org'
p734
I1
sS'www.peterbe.com'
p735
I2
sS'dev.hasenj.org'
p736
I1
sS'www.tty1.net'
p737
I1
sS'tech.yipit.com'
p738
I8
sS'www.jodal.no'
p739
I1
sS'multicorn.org'
p740
I1
sS'modestmaps.com'
p741
I1
sS'buddylindsey.com'
p742
I1
sS'tech.shift.com'
p743
I2
sS'martin.tecnodoc.com.ar'
p744
I2
sS'www.reviewboard.org'
p745
I1
sS'www.nkrode.com'
p746
I1
sS'brightonpijam3-es2.eventbrite.co.uk'
p747
I1
sS'swizec.com'
p748
I2
sS'ninja-ide.org'
p749
I1
sS'streamhacker.com'
p750
I1
sS'python3porting.com'
p751
I1
sS'www.ladjango.com'
p752
I2
sS'stochastix.wordpress.com'
p753
I1
sS'heynemann.github.com'
p754
I2
sS'ironspread.com'
p755
I1
sS'andrewingram.net'
p756
I1
sS'paylogic.github.com'
p757
I1
sS'mail.scipy.org'
p758
I1
sS'www.windowsazure.com'
p759
I2
sS'tornadogists.org'
p760
I1
sS'bitdeli.com'
p761
I1
sS'www.scotttorborg.com'
p762
I1
sS'meetup.dcpython.org'
p763
I15
sS'kkjkok.blogspot.in'
p764
I1
sS'grigory.ca'
p765
I1
sS'www.launchbit.com'
p766
I4
sS'lurklurk.org'
p767
I1
sS'www.youtube.com'
p768
I45
sS'suvashthapaliya.com'
p769
I1
sS'py.codeconf.com'
p770
I1
sS'greentreesnakes.readthedocs.org'
p771
I1
sS'users.softlab.ntua.gr'
p772
I2
sS'pyladies-edgecast-january.eventbrite.com'
p773
I1
sS'www.holovaty.com'
p774
I1
sS'blog.sendhub.com'
p775
I1
sS'devcenter.heroku.com'
p776
I3
sS'dajaxproject.com'
p777
I1
sS'pedrokroger.net'
p778
I1
sS'neuralensemble.org'
p779
I1
sS'pulpproject.org'
p780
I1
sS'www.seomoz.org'
p781
I1
sS'blogs.clogeny.com'
p782
I1
sS'lateral.netmanagers.com.ar'
p783
I1
sS'messymind.net'
p784
I1
sS'www.yaksis.com'
p785
I1
sS'gbeced.github.com'
p786
I1
sS'peter-hoffmann.com'
p787
I1
sS'pythonhalifax.org'
p788
I1
sS'nbviewer.ipython.org'
p789
I3
sS'blog.troygrosfield.com'
p790
I1
sS'blog.rootshell.be'
p791
I1
sS'pyevolve.sourceforge.net'
p792
I3
sS'www.klewel.com'
p793
I1
sS'blog.djangocircus.com'
p794
I1
sS'www.twilio.com'
p795
I3
sS'lint.io'
p796
I1
sS'www.asimihsan.com'
p797
I1
sS'deeplearning.net'
p798
I1
sS'affiliates.udemy.com'
p799
I1
sS'threebean.org'
p800
I1
sS'isbullsh.it'
p801
I2
sS'foobar.lu'
p802
I1
sS'www.bluzeandmuse.com'
p803
I1
sS'blog.uptill3.com'
p804
I1
sS'zverovich.net'
p805
I1
sS'tratt.net'
p806
I1
sS'www.blog.pythonlibrary.org'
p807
I9
sS'labs.twistedmatrix.com'
p808
I3
sS'artsalliancemedia-es2004.eventbrite.co.uk'
p809
I1
sS'geeks3d.com'
p810
I1
sS'www.minecraftprint.com'
p811
I1
sS'simeonfranklin.com'
p812
I1
sS'blog.heroku.com'
p813
I1
sS'askbot.com'
p814
I1
sS'www.michaelgrosner.com'
p815
I1
sS'track.justcloud.com'
p816
I2
sS'raspberry-python.blogspot.com'
p817
I2
sS'vertstudios.com'
p818
I1
sS'julien.danjou.info'
p819
I1
sS'twitter.com'
p820
I1
sS'jeremykun.com'
p821
I1
sS'www.kenvanharen.com'
p822
I1
sS'cloud.aculab.com'
p823
I1
sS'www.abstract.it'
p824
I1
sS'www.linuxjournal.com'
p825
I6
sS'www.chicagodjango.com'
p826
I1
sS'plone.org'
p827
I1
sS'www.mypy-lang.org'
p828
I1
sS'pandas.pydata.org'
p829
I3
sS'ozkatz.github.com'
p830
I2
sS'blog.fperez.org'
p831
I2
sS'www.slideshare.net'
p832
I20
sS'blog.untrod.com'
p833
I1
sS'hynek.me'
p834
I3
sS'ryrobes.com'
p835
I1
sS'mlapida.herokuapp.com'
p836
I1
sS'hairysun.com'
p837
I1
sS'www.mellowmorning.com'
p838
I1
sS'compiletoi.net'
p839
I1
sS'hackoftheday.securitytube.net'
p840
I1
sS'packages.python.org'
p841
I4
sS'pycon.blogspot.com'
p842
I10
sS'meetup.bostonpython.com'
p843
I31
sS'effectivedjango.com'
p844
I1
sS'jobs.pythonweekly.com'
p845
I106
sS'blog.beyondfog.com'
p846
I1
sS'comodit.github.com'
p847
I1
sS'django.2scoops.org'
p848
I2
sS'jeremykun.wordpress.com'
p849
I1
sS'davidshimel.com'
p850
I1
sS'www.python.org'
p851
I8
sS'www.joemartaganna.com'
p852
I1
sS'www3.gotomeeting.com'
p853
I1
sS'www.eladyarkoni.com'
p854
I1
sS'www.nerdydork.com'
p855
I1
sS'astrofrog.github.com'
p856
I1
sS'ankursethi.in'
p857
I1
sS'www.arngarden.com'
p858
I1
sS'www.python-camelot.com'
p859
I1
sS'www.raspiweekly.com'
p860
I2
sS'www.checkio.org'
p861
I1
sS'www.infoworld.com'
p862
I1
sS'www.usenix.org'
p863
I1
sS'stackoverflow.com'
p864
I1
sS'www.voidspace.org.uk'
p865
I2
sS'zombofant.net'
p866
I1
sS'stackful.io'
p867
I2
sS'jpktd.blogspot.com'
p868
I1
sS'ptgmedia.pearsoncmg.com'
p869
I1
sS'octayn.net'
p870
I1
sS'chrome.google.com'
p871
I1
sS'www.pythonweekly.com'
p872
I3
sS'blog.axant.it'
p873
I1
sS'codersbuffet.blogspot.com'
p874
I2
sS'blog.ziade.org'
p875
I4
sS'www.masteringemacs.org'
p876
I1
sS'sramana.in'
p877
I1
sS'thomassileo.com'
p878
I3
sS'ampushsocial.com'
p879
I1
sS'www.geraldoreports.org'
p880
I1
sS'blog.nektra.com'
p881
I1
sS'b.h6o6.com'
p882
I2
sS'blog.pamelafox.org'
p883
I1
sS'kevinryan.me'
p884
I1
sS'derrickpetzold.com'
p885
I1
sS'www.volatilesystems.com'
p886
I1
sS'ghickman.co.uk'
p887
I1
sS'click.linksynergy.com'
p888
I1
sS'www.linuxuser.co.uk'
p889
I3
sS'jamesburkhart.com'
p890
I1
sS'pypln.org'
p891
I1
sS'www.learnpython.org'
p892
I1
sS'lacusveris.com'
p893
I1
sS'jmduke.net'
p894
I1
sS'late.am'
p895
I3
sS'halitalptekin.tumblr.com'
p896
I1
sS'betablogs.esri.com'
p897
I1
sS'sharats.me'
p898
I2
sS'astroml.github.com'
p899
I2
sS'sympy.org'
p900
I1
sS'bitnami.org'
p901
I1
sS'sourceforge.net'
p902
I4
sS'lionel.textmalaysia.com'
p903
I1
sS'sypy2012feb-estw.eventbrite.com.au'
p904
I1
sS'sites.google.com'
p905
I1
sS'morepypy.blogspot.com'
p906
I12
sS'www.stoimen.com'
p907
I1
sS'sprint.pykonik.org'
p908
I1
sS'blog.daniel-watkins.co.uk'
p909
I1
sS'amitdev.in'
p910
I1
sS'www.barrymorrison.com'
p911
I1
sS'www.greenteapress.com'
p912
I1
ssS'issue'
p913
I81
s.